; Function Attrs: mustprogress uwtable
define noundef nonnull align 8 dereferenceable(64) ptr @_ZNK6icu_7510DateFormat6formatEdRNS_13UnicodeStringEPNS_21FieldPositionIteratorER10UErrorCode(ptr noundef nonnull align 8 dereferenceable(352) %this, double noundef %date, ptr noundef nonnull returned align 8 dereferenceable(64) %appendTo, ptr noundef %posIter, ptr noundef nonnull align 4 dereferenceable(4) %status) local_unnamed_addr #3 align 2 personality ptr @__gxx_personality_v0 {
entry:
  %ec = alloca i32, align 4
  %cal = alloca %"class.icu_75::GregorianCalendar", align 8
  %fCalendar = getelementptr inbounds i8, ptr %this, i64 328
  %0 = load ptr, ptr %fCalendar, align 8
  %cmp.not = icmp eq ptr %0, null
  br i1 %cmp.not, label %if.end31, label %if.then

if.then:                                          ; preds = %entry
  store i32 0, ptr %ec, align 4
  %vtable = load ptr, ptr %0, align 8
  %vfn = getelementptr inbounds i8, ptr %vtable, i64 184
  %1 = load ptr, ptr %vfn, align 8
  %call = tail call noundef ptr %1(ptr noundef nonnull align 8 dereferenceable(618) %0)
  %call3 = tail call i32 @strcmp(ptr noundef nonnull dereferenceable(1) %call, ptr noundef nonnull dereferenceable(10) @.str) #15
  %cmp4 = icmp eq i32 %call3, 0
  %2 = load ptr, ptr %fCalendar, align 8
  br i1 %cmp4, label %if.then5, label %if.else

if.then5:                                         ; preds = %if.then
  call void @_ZN6icu_7517GregorianCalendarC1ERKS0_(ptr noundef nonnull align 8 dereferenceable(654) %cal, ptr noundef nonnull align 8 dereferenceable(654) %2)
  invoke void @_ZN6icu_758Calendar15setTimeInMillisEdR10UErrorCode(ptr noundef nonnull align 8 dereferenceable(618) %cal, double noundef %date, ptr noundef nonnull align 4 dereferenceable(4) %ec)
          to label %invoke.cont unwind label %lpad

invoke.cont:                                      ; preds = %if.then5
  %3 = load i32, ptr %ec, align 4
  %cmp.i = icmp sgt i32 %3, 0
  br i1 %cmp.i, label %if.end, label %if.then9

if.then9:                                         ; preds = %invoke.cont
  %vtable10 = load ptr, ptr %this, align 8
  %vfn11 = getelementptr inbounds i8, ptr %vtable10, i64 72
  %4 = load ptr, ptr %vfn11, align 8
  %call13 = invoke noundef nonnull align 8 dereferenceable(64) ptr %4(ptr noundef nonnull align 8 dereferenceable(352) %this, ptr noundef nonnull align 8 dereferenceable(618) %cal, ptr noundef nonnull align 8 dereferenceable(64) %appendTo, ptr noundef %posIter, ptr noundef nonnull align 4 dereferenceable(4) %status)
          to label %if.end unwind label %lpad

lpad:                                             ; preds = %if.then5, %if.then9
  %5 = landingpad { ptr, i32 }
          cleanup
  call void @_ZN6icu_7517GregorianCalendarD1Ev(ptr noundef nonnull align 8 dereferenceable(654) %cal) #13
  resume { ptr, i32 } %5

if.end:                                           ; preds = %if.then9, %invoke.cont
  call void @_ZN6icu_7517GregorianCalendarD1Ev(ptr noundef nonnull align 8 dereferenceable(654) %cal) #13
  br label %if.end31

if.else:                                          ; preds = %if.then
  %vtable15 = load ptr, ptr %2, align 8
  %vfn16 = getelementptr inbounds i8, ptr %vtable15, i64 24
  %6 = load ptr, ptr %vfn16, align 8
  %call17 = tail call noundef ptr %6(ptr noundef nonnull align 8 dereferenceable(618) %2)
  %cmp18.not = icmp eq ptr %call17, null
  br i1 %cmp18.not, label %if.end31, label %if.then19

if.then19:                                        ; preds = %if.else
  tail call void @_ZN6icu_758Calendar15setTimeInMillisEdR10UErrorCode(ptr noundef nonnull align 8 dereferenceable(618) %call17, double noundef %date, ptr noundef nonnull align 4 dereferenceable(4) %status)
  %7 = load i32, ptr %status, align 4
  %cmp.i11 = icmp sgt i32 %7, 0
  br i1 %cmp.i11, label %delete.notnull, label %if.then22

if.then22:                                        ; preds = %if.then19
  %vtable23 = load ptr, ptr %this, align 8
  %vfn24 = getelementptr inbounds i8, ptr %vtable23, i64 72
  %8 = load ptr, ptr %vfn24, align 8
  %call25 = tail call noundef nonnull align 8 dereferenceable(64) ptr %8(ptr noundef nonnull align 8 dereferenceable(352) %this, ptr noundef nonnull align 8 dereferenceable(618) %call17, ptr noundef nonnull align 8 dereferenceable(64) %appendTo, ptr noundef %posIter, ptr noundef nonnull align 4 dereferenceable(4) %status)
  br label %delete.notnull

delete.notnull:                                   ; preds = %if.then19, %if.then22
  %vtable27 = load ptr, ptr %call17, align 8
  %vfn28 = getelementptr inbounds i8, ptr %vtable27, i64 8
  %9 = load ptr, ptr %vfn28, align 8
  tail call void %9(ptr noundef nonnull align 8 dereferenceable(618) %call17) #13
  br label %if.end31

if.end31:                                         ; preds = %if.end, %delete.notnull, %if.else, %entry
  ret ptr %appendTo
}